; Function Attrs: mustprogress nounwind uwtable
define internal void @_ZN7testing8internal30ValuesInIteratorRangeGeneratorIN12_GLOBAL__N_15ParamEE8IteratorD2Ev(ptr nocapture noundef nonnull align 8 dereferenceable(32) %this) unnamed_addr #3 align 2 personality ptr @__gxx_personality_v0 {
entry:
  store ptr getelementptr inbounds ({ [9 x ptr] }, ptr @_ZTVN7testing8internal30ValuesInIteratorRangeGeneratorIN12_GLOBAL__N_15ParamEE8IteratorE, i64 0, i32 0, i64 2), ptr %this, align 8
  %value_ = getelementptr inbounds i8, ptr %this, i64 24
  %0 = load ptr, ptr %value_, align 8
  %cmp.not.i = icmp eq ptr %0, null
  br i1 %cmp.not.i, label %_ZNSt10unique_ptrIKN12_GLOBAL__N_15ParamESt14default_deleteIS2_EED2Ev.exit, label %_ZNKSt14default_deleteIKN12_GLOBAL__N_15ParamEEclEPS2_.exit.i

_ZNKSt14default_deleteIKN12_GLOBAL__N_15ParamEEclEPS2_.exit.i: ; preds = %entry
  tail call void @_ZdlPv(ptr noundef nonnull %0) #33
  br label %_ZNSt10unique_ptrIKN12_GLOBAL__N_15ParamESt14default_deleteIS2_EED2Ev.exit

_ZNSt10unique_ptrIKN12_GLOBAL__N_15ParamESt14default_deleteIS2_EED2Ev.exit: ; preds = %entry, %_ZNKSt14default_deleteIKN12_GLOBAL__N_15ParamEEclEPS2_.exit.i
  store ptr null, ptr %value_, align 8
  ret void
}